target datalayout = "e-m:e-p270:32:32-p271:32:32-p272:64:64-i64:64-i128:128-f80:128-n8:16:32:64-S128"
target triple = "x86_64-pc-linux-gnu"

%struct.slurm_conf_t = type { i64, ptr, i16, ptr, ptr, ptr, ptr, ptr, i16, ptr, ptr, ptr, ptr, ptr, ptr, ptr, i16, ptr, ptr, ptr, ptr, i16, ptr, ptr, ptr, i64, ptr, ptr, ptr, ptr, i16, ptr, ptr, i16, i32, ptr, i32, ptr, i32, i32, ptr, ptr, i64, i64, ptr, i16, i16, ptr, i32, i32, ptr, i32, ptr, i32, i16, i16, i16, ptr, i16, i16, ptr, ptr, i32, i16, i16, ptr, i32, i16, ptr, ptr, ptr, ptr, i16, ptr, ptr, ptr, ptr, i32, ptr, ptr, ptr, ptr, i16, i16, ptr, i32, i32, i32, i16, i16, ptr, ptr, i16, ptr, ptr, i32, i32, i32, i32, i32, i64, i32, i32, i16, ptr, ptr, i32, ptr, ptr, ptr, i16, i32, ptr, ptr, i16, ptr, ptr, i32, i16, ptr, ptr, ptr, ptr, i32, i32, i16, i16, i32, ptr, i16, ptr, i32, i32, i32, i32, i32, i32, ptr, i16, ptr, ptr, i32, i16, ptr, i32, i16, i16, ptr, ptr, ptr, i16, ptr, ptr, ptr, ptr, i16, i16, ptr, i16, ptr, i16, ptr, i16, ptr, i16, ptr, ptr, ptr, ptr, i16, ptr, ptr, ptr, i32, ptr, i32, ptr, ptr, i16, ptr, ptr, i32, i16, ptr, ptr, i16, i16, ptr, i16, ptr, ptr, ptr, i32, ptr, i16, i16, ptr, ptr, ptr, ptr, ptr, ptr, ptr, ptr, i16, i32, i16, ptr, ptr, ptr, ptr, i32, ptr, ptr, ptr, i16, ptr, ptr, ptr, i16, ptr, i16, ptr, i16, i16, ptr }
%struct.data_s = type { i32, i32, %union.anon }
%union.anon = type { ptr }

@slurm_conf = external global %struct.slurm_conf_t, align 8
@.str.29 = private unnamed_addr constant [2 x i8] c"/\00", align 1
@.str.55 = private unnamed_addr constant [45 x i8] c"DATA: %s: %pD defined dictionary path to %pD\00", align 1
@__func__.data_define_dict_path = private unnamed_addr constant [22 x i8] c"data_define_dict_path\00", align 1
@.str.56 = private unnamed_addr constant [47 x i8] c"DATA: %s: %pD failed to define dictionary path\00", align 1

; Function Attrs: nounwind uwtable
define internal void @_check_data_list_magic(ptr noundef %0) #0 {
  %2 = alloca ptr, align 8
  store ptr %0, ptr %2, align 8
  ret void
}

; Function Attrs: nounwind uwtable
define internal void @_check_magic(ptr noundef %0) #0 {
  %2 = alloca ptr, align 8
  store ptr %0, ptr %2, align 8
  %3 = load ptr, ptr %2, align 8
  %4 = icmp ne ptr %3, null
  br i1 %4, label %6, label %5

5:                                                ; preds = %1
  br label %29

6:                                                ; preds = %1
  %7 = load i64, ptr getelementptr inbounds nuw (%struct.slurm_conf_t, ptr @slurm_conf, i32 0, i32 42), align 8
  %8 = and i64 %7, 256
  %9 = icmp ne i64 %8, 0
  br i1 %9, label %10, label %29

10:                                               ; preds = %6
  %11 = load ptr, ptr %2, align 8
  %12 = getelementptr inbounds nuw %struct.data_s, ptr %11, i32 0, i32 1
  %13 = load i32, ptr %12, align 4
  %14 = icmp eq i32 %13, 65282
  br i1 %14, label %15, label %19

15:                                               ; preds = %10
  %16 = load ptr, ptr %2, align 8
  %17 = getelementptr inbounds nuw %struct.data_s, ptr %16, i32 0, i32 2
  %18 = load ptr, ptr %17, align 8
  call void @_check_data_list_magic(ptr noundef %18)
  br label %19

19:                                               ; preds = %15, %10
  %20 = load ptr, ptr %2, align 8
  %21 = getelementptr inbounds nuw %struct.data_s, ptr %20, i32 0, i32 1
  %22 = load i32, ptr %21, align 4
  %23 = icmp eq i32 %22, 65283
  br i1 %23, label %24, label %28

24:                                               ; preds = %19
  %25 = load ptr, ptr %2, align 8
  %26 = getelementptr inbounds nuw %struct.data_s, ptr %25, i32 0, i32 2
  %27 = load ptr, ptr %26, align 8
  call void @_check_data_list_magic(ptr noundef %27)
  br label %28

28:                                               ; preds = %24, %19
  br label %29

29:                                               ; preds = %5, %28, %6
  ret void
}

; Function Attrs: nounwind uwtable
define dso_local ptr @data_define_dict_path(ptr noundef %0, ptr noundef %1) #0 {
  %3 = alloca ptr, align 8
  %4 = alloca ptr, align 8
  %5 = alloca ptr, align 8
  %6 = alloca ptr, align 8
  %7 = alloca ptr, align 8
  %8 = alloca ptr, align 8
  %9 = alloca ptr, align 8
  %10 = alloca i32, align 4
  store ptr %0, ptr %4, align 8
  store ptr %1, ptr %5, align 8
  call void @llvm.lifetime.start.p0(i64 8, ptr %6) #10
  %11 = load ptr, ptr %4, align 8
  store ptr %11, ptr %6, align 8
  call void @llvm.lifetime.start.p0(i64 8, ptr %7) #10
  store ptr null, ptr %7, align 8
  call void @llvm.lifetime.start.p0(i64 8, ptr %8) #10
  store ptr null, ptr %8, align 8
  call void @llvm.lifetime.start.p0(i64 8, ptr %9) #10
  %12 = load ptr, ptr %4, align 8
  call void @_check_magic(ptr noundef %12)
  %13 = load ptr, ptr %4, align 8
  %14 = icmp ne ptr %13, null
  br i1 %14, label %16, label %15

15:                                               ; preds = %2
  store ptr null, ptr %3, align 8
  store i32 1, ptr %10, align 4
  br label %85

16:                                               ; preds = %2
  %17 = load ptr, ptr %5, align 8
  %18 = call ptr @xstrdup(ptr noundef %17)
  store ptr %18, ptr %9, align 8
  %19 = load ptr, ptr %9, align 8
  %20 = call ptr @strtok_r(ptr noundef %19, ptr noundef @.str.29, ptr noundef %7) #10
  store ptr %20, ptr %8, align 8
  br label %21

21:                                               ; preds = %51, %16
  %22 = load ptr, ptr %8, align 8
  %23 = icmp ne ptr %22, null
  br i1 %23, label %24, label %27

24:                                               ; preds = %21
  %25 = load ptr, ptr %6, align 8
  %26 = icmp ne ptr %25, null
  br label %27

27:                                               ; preds = %24, %21
  %28 = phi i1 [ false, %21 ], [ %26, %24 ]
  br i1 %28, label %29, label %53

29:                                               ; preds = %27
  %30 = load ptr, ptr %8, align 8
  call void @xstrtrim(ptr noundef %30)
  %31 = load ptr, ptr %6, align 8
  %32 = getelementptr inbounds nuw %struct.data_s, ptr %31, i32 0, i32 1
  %33 = load i32, ptr %32, align 4
  %34 = icmp eq i32 %33, 65281
  br i1 %34, label %35, label %38

35:                                               ; preds = %29
  %36 = load ptr, ptr %6, align 8
  %37 = call ptr @data_set_dict(ptr noundef %36)
  br label %45

38:                                               ; preds = %29
  %39 = load ptr, ptr %6, align 8
  %40 = getelementptr inbounds nuw %struct.data_s, ptr %39, i32 0, i32 1
  %41 = load i32, ptr %40, align 4
  %42 = icmp ne i32 %41, 65283
  br i1 %42, label %43, label %44

43:                                               ; preds = %38
  store ptr null, ptr %6, align 8
  br label %53

44:                                               ; preds = %38
  br label %45

45:                                               ; preds = %44, %35
  %46 = load ptr, ptr %6, align 8
  %47 = load ptr, ptr %8, align 8
  %48 = call ptr @data_key_set(ptr noundef %46, ptr noundef %47)
  store ptr %48, ptr %6, align 8
  %49 = icmp ne ptr %48, null
  br i1 %49, label %51, label %50

50:                                               ; preds = %45
  br label %53

51:                                               ; preds = %45
  %52 = call ptr @strtok_r(ptr noundef null, ptr noundef @.str.29, ptr noundef %7) #10
  store ptr %52, ptr %8, align 8
  br label %21, !llvm.loop !33

53:                                               ; preds = %50, %43, %27
  call void @slurm_xfree(ptr noundef %9)
  %54 = load ptr, ptr %6, align 8
  %55 = icmp ne ptr %54, null
  br i1 %55, label %56, label %70

56:                                               ; preds = %53
  br label %57

57:                                               ; preds = %56
  %58 = load i64, ptr getelementptr inbounds nuw (%struct.slurm_conf_t, ptr @slurm_conf, i32 0, i32 42), align 8
  %59 = and i64 %58, 256
  %60 = icmp ne i64 %59, 0
  br i1 %60, label %61, label %67

61:                                               ; preds = %57
  %62 = load ptr, ptr %5, align 8
  %63 = load ptr, ptr %5, align 8
  %64 = call i64 @strlen(ptr noundef %63) #11
  %65 = load ptr, ptr %4, align 8
  %66 = load ptr, ptr %6, align 8
  call void (ptr, i64, i64, i64, ptr, ...) @_log_flag_hex(ptr noundef %62, i64 noundef %64, i64 noundef -1, i64 noundef -1, ptr noundef @.str.55, ptr noundef @__func__.data_define_dict_path, ptr noundef %65, ptr noundef %66)
  br label %67

67:                                               ; preds = %61, %57
  br label %68

68:                                               ; preds = %67
  br label %69

69:                                               ; preds = %68
  br label %83

70:                                               ; preds = %53
  br label %71

71:                                               ; preds = %70
  %72 = load i64, ptr getelementptr inbounds nuw (%struct.slurm_conf_t, ptr @slurm_conf, i32 0, i32 42), align 8
  %73 = and i64 %72, 256
  %74 = icmp ne i64 %73, 0
  br i1 %74, label %75, label %80

75:                                               ; preds = %71
  %76 = load ptr, ptr %5, align 8
  %77 = load ptr, ptr %5, align 8
  %78 = call i64 @strlen(ptr noundef %77) #11
  %79 = load ptr, ptr %4, align 8
  call void (ptr, i64, i64, i64, ptr, ...) @_log_flag_hex(ptr noundef %76, i64 noundef %78, i64 noundef -1, i64 noundef -1, ptr noundef @.str.56, ptr noundef @__func__.data_define_dict_path, ptr noundef %79)
  br label %80

80:                                               ; preds = %75, %71
  br label %81

81:                                               ; preds = %80
  br label %82

82:                                               ; preds = %81
  br label %83

83:                                               ; preds = %82, %69
  %84 = load ptr, ptr %6, align 8
  store ptr %84, ptr %3, align 8
  store i32 1, ptr %10, align 4
  br label %85

85:                                               ; preds = %83, %15
  call void @llvm.lifetime.end.p0(i64 8, ptr %9) #10
  call void @llvm.lifetime.end.p0(i64 8, ptr %8) #10
  call void @llvm.lifetime.end.p0(i64 8, ptr %7) #10
  call void @llvm.lifetime.end.p0(i64 8, ptr %6) #10
  %86 = load ptr, ptr %3, align 8
  ret ptr %86
}