; Function Attrs: nounwind uwtable
define dso_local ptr @data_define_dict_path(ptr noundef %0, ptr noundef %1) local_unnamed_addr #0 {
  %3 = alloca ptr, align 8
  %4 = alloca ptr, align 8
  call void @llvm.lifetime.start.p0(i64 8, ptr nonnull %3) #16
  store ptr null, ptr %3, align 8
  call void @llvm.lifetime.start.p0(i64 8, ptr nonnull %4) #16
  %.not = icmp eq ptr %0, null
  br i1 %.not, label %25, label %5

5:                                                ; preds = %2
  %6 = tail call ptr @xstrdup(ptr noundef %1) #16
  store ptr %6, ptr %4, align 8
  %7 = call ptr @strtok_r(ptr noundef %6, ptr noundef nonnull @.str.29, ptr noundef nonnull %3) #16
  %.not2838 = icmp eq ptr %7, null
  br i1 %.not2838, label %._crit_edge, label %.lr.ph

.lr.ph:                                           ; preds = %5, %14
  %.040 = phi ptr [ %15, %14 ], [ %7, %5 ]
  %.02239 = phi ptr [ %13, %14 ], [ %0, %5 ]
  call void @xstrtrim(ptr noundef nonnull %.040) #16
  %8 = getelementptr inbounds nuw i8, ptr %.02239, i64 4
  %9 = load i32, ptr %8, align 4
  switch i32 %9, label %20 [
    i32 65281, label %10
    i32 65283, label %12
  ]

10:                                               ; preds = %.lr.ph
  %11 = call ptr @data_set_dict(ptr noundef nonnull %.02239)
  br label %12

12:                                               ; preds = %.lr.ph, %10
  %13 = call ptr @data_key_set(ptr noundef nonnull %.02239, ptr noundef nonnull %.040)
  %.not30 = icmp eq ptr %13, null
  br i1 %.not30, label %20, label %14

14:                                               ; preds = %12
  %15 = call ptr @strtok_r(ptr noundef null, ptr noundef nonnull @.str.29, ptr noundef nonnull %3) #16
  %.not28 = icmp eq ptr %15, null
  br i1 %.not28, label %._crit_edge, label %.lr.ph, !llvm.loop !34

._crit_edge:                                      ; preds = %14, %5
  %.022.lcssa = phi ptr [ %0, %5 ], [ %13, %14 ]
  call void @slurm_xfree(ptr noundef nonnull %4) #16
  %16 = load i64, ptr getelementptr inbounds nuw (i8, ptr @slurm_conf, i64 320), align 8
  %17 = and i64 %16, 256
  %.not33 = icmp eq i64 %17, 0
  br i1 %.not33, label %25, label %18

18:                                               ; preds = %._crit_edge
  %19 = call i64 @strlen(ptr noundef nonnull dereferenceable(1) %1) #17
  call void (ptr, i64, i64, i64, ptr, ...) @_log_flag_hex(ptr noundef nonnull %1, i64 noundef %19, i64 noundef -1, i64 noundef -1, ptr noundef nonnull @.str.55, ptr noundef nonnull @__func__.data_define_dict_path, ptr noundef nonnull %0, ptr noundef nonnull %.022.lcssa) #16
  br label %25

20:                                               ; preds = %12, %.lr.ph
  call void @slurm_xfree(ptr noundef nonnull %4) #16
  %21 = load i64, ptr getelementptr inbounds nuw (i8, ptr @slurm_conf, i64 320), align 8
  %22 = and i64 %21, 256
  %.not32 = icmp eq i64 %22, 0
  br i1 %.not32, label %25, label %23

23:                                               ; preds = %20
  %24 = call i64 @strlen(ptr noundef nonnull dereferenceable(1) %1) #17
  call void (ptr, i64, i64, i64, ptr, ...) @_log_flag_hex(ptr noundef nonnull %1, i64 noundef %24, i64 noundef -1, i64 noundef -1, ptr noundef nonnull @.str.56, ptr noundef nonnull @__func__.data_define_dict_path, ptr noundef nonnull %0) #16
  br label %25

25:                                               ; preds = %18, %._crit_edge, %23, %20, %2
  %.023 = phi ptr [ null, %2 ], [ null, %20 ], [ null, %23 ], [ %.022.lcssa, %._crit_edge ], [ %.022.lcssa, %18 ]
  call void @llvm.lifetime.end.p0(i64 8, ptr nonnull %4) #16
  call void @llvm.lifetime.end.p0(i64 8, ptr nonnull %3) #16
  ret ptr %.023
}